target datalayout = "e-m:e-p270:32:32-p271:32:32-p272:64:64-i64:64-i128:128-f80:128-n8:16:32:64-S128"
target triple = "x86_64-pc-linux-gnu"

@stderr = external global ptr, align 8
@.str.45 = private unnamed_addr constant [25 x i8] c"pathname too long: \22%s\22\0A\00", align 1
@.str.46 = private unnamed_addr constant [32 x i8] c"path/filename too long: \22%s%s\22\0A\00", align 1

; Function Attrs: mustprogress nounwind uwtable
define internal void @_ZL16makeFullFilenamePKcS0_Pci(ptr noundef %0, ptr noundef %1, ptr noundef %2, i32 noundef %3) #3 {
  %5 = alloca ptr, align 8
  %6 = alloca ptr, align 8
  %7 = alloca ptr, align 8
  %8 = alloca i32, align 4
  %9 = alloca ptr, align 8
  store ptr %0, ptr %5, align 8, !tbaa !3
  store ptr %1, ptr %6, align 8, !tbaa !3
  store ptr %2, ptr %7, align 8, !tbaa !3
  store i32 %3, ptr %8, align 4, !tbaa !8
  call void @llvm.lifetime.start.p0(i64 8, ptr %9) #13
  %10 = load ptr, ptr %5, align 8, !tbaa !3
  %11 = icmp ne ptr %10, null
  br i1 %11, label %12, label %50

12:                                               ; preds = %4
  %13 = load ptr, ptr %5, align 8, !tbaa !3
  %14 = getelementptr inbounds i8, ptr %13, i64 0
  %15 = load i8, ptr %14, align 1, !tbaa !32
  %16 = sext i8 %15 to i32
  %17 = icmp ne i32 %16, 0
  br i1 %17, label %18, label %50

18:                                               ; preds = %12
  %19 = load ptr, ptr %5, align 8, !tbaa !3
  %20 = call i64 @strlen(ptr noundef %19) #15
  %21 = add i64 %20, 1
  %22 = trunc i64 %21 to i32
  %23 = load i32, ptr %8, align 4, !tbaa !8
  %24 = icmp sge i32 %22, %23
  br i1 %24, label %25, label %29

25:                                               ; preds = %18
  %26 = load ptr, ptr @stderr, align 8, !tbaa !54
  %27 = load ptr, ptr %5, align 8, !tbaa !3
  %28 = call i32 (ptr, ptr, ...) @fprintf(ptr noundef %26, ptr noundef @.str.45, ptr noundef %27) #13
  call void @exit(i32 noundef 15) #14
  unreachable

29:                                               ; preds = %18
  %30 = load ptr, ptr %7, align 8, !tbaa !3
  %31 = load ptr, ptr %5, align 8, !tbaa !3
  %32 = call ptr @strcpy(ptr noundef %30, ptr noundef %31) #13
  %33 = load ptr, ptr %7, align 8, !tbaa !3
  %34 = call noundef ptr @strchr(ptr noundef %33, i32 noundef 0) #15
  store ptr %34, ptr %9, align 8, !tbaa !3
  %35 = load ptr, ptr %9, align 8, !tbaa !3
  %36 = getelementptr inbounds i8, ptr %35, i64 -1
  %37 = load i8, ptr %36, align 1, !tbaa !32
  %38 = sext i8 %37 to i32
  %39 = icmp ne i32 %38, 47
  br i1 %39, label %40, label %49

40:                                               ; preds = %29
  %41 = load ptr, ptr %9, align 8, !tbaa !3
  %42 = getelementptr inbounds i8, ptr %41, i64 -1
  %43 = load i8, ptr %42, align 1, !tbaa !32
  %44 = sext i8 %43 to i32
  %45 = icmp ne i32 %44, 47
  br i1 %45, label %46, label %49

46:                                               ; preds = %40
  %47 = load ptr, ptr %9, align 8, !tbaa !3
  %48 = getelementptr inbounds nuw i8, ptr %47, i32 1
  store ptr %48, ptr %9, align 8, !tbaa !3
  store i8 47, ptr %47, align 1, !tbaa !32
  br label %49

49:                                               ; preds = %46, %40, %29
  br label %52

50:                                               ; preds = %12, %4
  %51 = load ptr, ptr %7, align 8, !tbaa !3
  store ptr %51, ptr %9, align 8, !tbaa !3
  br label %52

52:                                               ; preds = %50, %49
  %53 = load ptr, ptr %9, align 8, !tbaa !3
  %54 = load ptr, ptr %7, align 8, !tbaa !3
  %55 = ptrtoint ptr %53 to i64
  %56 = ptrtoint ptr %54 to i64
  %57 = sub i64 %55, %56
  %58 = load ptr, ptr %6, align 8, !tbaa !3
  %59 = call i64 @strlen(ptr noundef %58) #15
  %60 = add i64 %57, %59
  %61 = trunc i64 %60 to i32
  %62 = load i32, ptr %8, align 4, !tbaa !8
  %63 = icmp sge i32 %61, %62
  br i1 %63, label %64, label %69

64:                                               ; preds = %52
  %65 = load ptr, ptr @stderr, align 8, !tbaa !54
  %66 = load ptr, ptr %7, align 8, !tbaa !3
  %67 = load ptr, ptr %6, align 8, !tbaa !3
  %68 = call i32 (ptr, ptr, ...) @fprintf(ptr noundef %65, ptr noundef @.str.46, ptr noundef %66, ptr noundef %67) #13
  call void @exit(i32 noundef 15) #14
  unreachable

69:                                               ; preds = %52
  %70 = load ptr, ptr %9, align 8, !tbaa !3
  %71 = load ptr, ptr %6, align 8, !tbaa !3
  %72 = call ptr @strcpy(ptr noundef %70, ptr noundef %71) #13
  call void @llvm.lifetime.end.p0(i64 8, ptr %9) #13
  ret void
}