; Function Attrs: mustprogress nofree nounwind uwtable
define internal fastcc void @_ZL16makeFullFilenamePKcS0_Pci(ptr noundef %0, ptr noundef %1, ptr noundef nonnull %2) unnamed_addr #8 {
  %.not = icmp eq ptr %0, null
  br i1 %.not, label %20, label %4

4:                                                ; preds = %3
  %5 = load i8, ptr %0, align 1, !tbaa !19
  %.not20 = icmp eq i8 %5, 0
  br i1 %.not20, label %20, label %6

6:                                                ; preds = %4
  %7 = tail call i64 @strlen(ptr noundef nonnull dereferenceable(1) %0) #24
  %8 = trunc i64 %7 to i32
  %9 = add i32 %8, 1
  %10 = icmp sgt i32 %9, 1023
  br i1 %10, label %11, label %14

11:                                               ; preds = %6
  %12 = load ptr, ptr @stderr, align 8, !tbaa !36
  %13 = tail call i32 (ptr, ptr, ...) @fprintf(ptr noundef %12, ptr noundef nonnull @.str.45, ptr noundef nonnull %0) #25
  tail call void @exit(i32 noundef 15) #26
  unreachable

14:                                               ; preds = %6
  %15 = tail call ptr @strcpy(ptr noundef nonnull dereferenceable(1) %2, ptr noundef nonnull dereferenceable(1) %0) #23
  %strlen = tail call i64 @strlen(ptr nonnull dereferenceable(1) %2)
  %strchr = getelementptr inbounds i8, ptr %2, i64 %strlen
  %16 = getelementptr inbounds i8, ptr %strchr, i64 -1
  %17 = load i8, ptr %16, align 1, !tbaa !19
  %.not21 = icmp eq i8 %17, 47
  br i1 %.not21, label %20, label %18

18:                                               ; preds = %14
  %19 = getelementptr inbounds nuw i8, ptr %strchr, i64 1
  store i8 47, ptr %strchr, align 1, !tbaa !19
  br label %20

20:                                               ; preds = %3, %4, %14, %18
  %.0 = phi ptr [ %19, %18 ], [ %strchr, %14 ], [ %2, %4 ], [ %2, %3 ]
  %21 = ptrtoint ptr %.0 to i64
  %22 = ptrtoint ptr %2 to i64
  %23 = sub i64 %21, %22
  %24 = tail call i64 @strlen(ptr noundef nonnull dereferenceable(1) %1) #24
  %25 = add i64 %23, %24
  %26 = trunc i64 %25 to i32
  %27 = icmp sgt i32 %26, 1023
  br i1 %27, label %28, label %31

28:                                               ; preds = %20
  %29 = load ptr, ptr @stderr, align 8, !tbaa !36
  %30 = tail call i32 (ptr, ptr, ...) @fprintf(ptr noundef %29, ptr noundef nonnull @.str.46, ptr noundef nonnull %2, ptr noundef nonnull %1) #25
  tail call void @exit(i32 noundef 15) #26
  unreachable

31:                                               ; preds = %20
  %32 = tail call ptr @strcpy(ptr noundef nonnull dereferenceable(1) %.0, ptr noundef nonnull dereferenceable(1) %1) #23
  ret void
}